target datalayout = "e-m:e-p270:32:32-p271:32:32-p272:64:64-i64:64-i128:128-f80:128-n8:16:32:64-S128"
target triple = "x86_64-pc-linux-gnu"

%struct.UConverterAlias = type { ptr, ptr, ptr, ptr, ptr, ptr, ptr, ptr, ptr, i32, i32, i32, i32, i32, i32, i32, i32, i32 }

@_ZL10gMainTable = internal global %struct.UConverterAlias zeroinitializer, align 8

; Function Attrs: inlinehint mustprogress nounwind uwtable
define internal noundef signext i8 @_ZL7isAliasPKcP10UErrorCode(ptr noundef %0, ptr noundef %1) #3 {
  %3 = alloca i8, align 1
  %4 = alloca ptr, align 8
  %5 = alloca ptr, align 8
  store ptr %0, ptr %4, align 8, !tbaa !3
  store ptr %1, ptr %5, align 8, !tbaa !17
  %6 = load ptr, ptr %4, align 8, !tbaa !3
  %7 = icmp eq ptr %6, null
  br i1 %7, label %8, label %10

8:                                                ; preds = %2
  %9 = load ptr, ptr %5, align 8, !tbaa !17
  store i32 1, ptr %9, align 4, !tbaa !26
  store i8 0, ptr %3, align 1
  br label %16

10:                                               ; preds = %2
  %11 = load ptr, ptr %4, align 8, !tbaa !3
  %12 = load i8, ptr %11, align 1, !tbaa !8
  %13 = sext i8 %12 to i32
  %14 = icmp ne i32 %13, 0
  %15 = zext i1 %14 to i8
  store i8 %15, ptr %3, align 1
  br label %16

16:                                               ; preds = %10, %8
  %17 = load i8, ptr %3, align 1
  ret i8 %17
}

; Function Attrs: mustprogress uwtable
define ptr @ucnv_getStandardName_77(ptr noundef %0, ptr noundef %1, ptr noundef %2) #2 {
  %4 = alloca ptr, align 8
  %5 = alloca ptr, align 8
  %6 = alloca ptr, align 8
  %7 = alloca ptr, align 8
  %8 = alloca i32, align 4
  %9 = alloca ptr, align 8
  %10 = alloca i32, align 4
  store ptr %0, ptr %5, align 8, !tbaa !3
  store ptr %1, ptr %6, align 8, !tbaa !3
  store ptr %2, ptr %7, align 8, !tbaa !17
  %11 = load ptr, ptr %7, align 8, !tbaa !17
  %12 = call noundef signext i8 @_ZL13haveAliasDataP10UErrorCode(ptr noundef %11)
  %13 = icmp ne i8 %12, 0
  br i1 %13, label %14, label %56

14:                                               ; preds = %3
  %15 = load ptr, ptr %5, align 8, !tbaa !3
  %16 = load ptr, ptr %7, align 8, !tbaa !17
  %17 = call noundef signext i8 @_ZL7isAliasPKcP10UErrorCode(ptr noundef %15, ptr noundef %16)
  %18 = icmp ne i8 %17, 0
  br i1 %18, label %19, label %56

19:                                               ; preds = %14
  call void @llvm.lifetime.start.p0(i64 4, ptr %8) #12
  %20 = load ptr, ptr %5, align 8, !tbaa !3
  %21 = load ptr, ptr %6, align 8, !tbaa !3
  %22 = load ptr, ptr %7, align 8, !tbaa !17
  %23 = call noundef i32 @_ZL26findTaggedAliasListsOffsetPKcS0_P10UErrorCode(ptr noundef %20, ptr noundef %21, ptr noundef %22)
  store i32 %23, ptr %8, align 4, !tbaa !14
  %24 = load i32, ptr %8, align 4, !tbaa !14
  %25 = icmp ult i32 0, %24
  br i1 %25, label %26, label %52

26:                                               ; preds = %19
  %27 = load i32, ptr %8, align 4, !tbaa !14
  %28 = load i32, ptr getelementptr inbounds nuw (%struct.UConverterAlias, ptr @_ZL10gMainTable, i32 0, i32 14), align 4, !tbaa !39
  %29 = icmp ult i32 %27, %28
  br i1 %29, label %30, label %52

30:                                               ; preds = %26
  call void @llvm.lifetime.start.p0(i64 8, ptr %9) #12
  %31 = load ptr, ptr getelementptr inbounds nuw (%struct.UConverterAlias, ptr @_ZL10gMainTable, i32 0, i32 5), align 8, !tbaa !49
  %32 = load i32, ptr %8, align 4, !tbaa !14
  %33 = zext i32 %32 to i64
  %34 = getelementptr inbounds nuw i16, ptr %31, i64 %33
  %35 = getelementptr inbounds i16, ptr %34, i64 1
  store ptr %35, ptr %9, align 8, !tbaa !53
  %36 = load ptr, ptr %9, align 8, !tbaa !53
  %37 = getelementptr inbounds i16, ptr %36, i64 0
  %38 = load i16, ptr %37, align 2, !tbaa !23
  %39 = icmp ne i16 %38, 0
  br i1 %39, label %40, label %48

40:                                               ; preds = %30
  %41 = load ptr, ptr getelementptr inbounds nuw (%struct.UConverterAlias, ptr @_ZL10gMainTable, i32 0, i32 7), align 8, !tbaa !21
  %42 = load ptr, ptr %9, align 8, !tbaa !53
  %43 = getelementptr inbounds i16, ptr %42, i64 0
  %44 = load i16, ptr %43, align 2, !tbaa !23
  %45 = zext i16 %44 to i32
  %46 = sext i32 %45 to i64
  %47 = getelementptr inbounds i16, ptr %41, i64 %46
  store ptr %47, ptr %4, align 8
  store i32 1, ptr %10, align 4
  br label %49

48:                                               ; preds = %30
  store i32 0, ptr %10, align 4
  br label %49

49:                                               ; preds = %48, %40
  call void @llvm.lifetime.end.p0(i64 8, ptr %9) #12
  %50 = load i32, ptr %10, align 4
  switch i32 %50, label %53 [
    i32 0, label %51
  ]

51:                                               ; preds = %49
  br label %52

52:                                               ; preds = %51, %26, %19
  store i32 0, ptr %10, align 4
  br label %53

53:                                               ; preds = %52, %49
  call void @llvm.lifetime.end.p0(i64 4, ptr %8) #12
  %54 = load i32, ptr %10, align 4
  switch i32 %54, label %59 [
    i32 0, label %55
    i32 1, label %57
  ]

55:                                               ; preds = %53
  br label %56

56:                                               ; preds = %55, %14, %3
  store ptr null, ptr %4, align 8
  br label %57

57:                                               ; preds = %56, %53
  %58 = load ptr, ptr %4, align 8
  ret ptr %58

59:                                               ; preds = %53
  unreachable
}