; Function Attrs: mustprogress uwtable
define ptr @ucnv_getStandardName_77(ptr noundef readonly %0, ptr noundef %1, ptr noundef %2) local_unnamed_addr #3 {
  %4 = tail call fastcc noundef signext i8 @_ZL13haveAliasDataP10UErrorCode(ptr noundef %2)
  %.not = icmp eq i8 %4, 0
  br i1 %.not, label %21, label %5

5:                                                ; preds = %3
  %6 = icmp eq ptr %0, null
  br i1 %6, label %_ZL7isAliasPKcP10UErrorCode.exit.thread, label %_ZL7isAliasPKcP10UErrorCode.exit

_ZL7isAliasPKcP10UErrorCode.exit.thread:          ; preds = %5
  store i32 1, ptr %2, align 4, !tbaa !13
  br label %21

_ZL7isAliasPKcP10UErrorCode.exit:                 ; preds = %5
  %7 = load i8, ptr %0, align 1, !tbaa !3
  %.not26 = icmp eq i8 %7, 0
  br i1 %.not26, label %21, label %8

8:                                                ; preds = %_ZL7isAliasPKcP10UErrorCode.exit
  %9 = tail call fastcc noundef i32 @_ZL26findTaggedAliasListsOffsetPKcS0_P10UErrorCode(ptr noundef nonnull %0, ptr noundef %1, ptr noundef %2)
  %.not18 = icmp ne i32 %9, 0
  %10 = load i32, ptr getelementptr inbounds nuw (i8, ptr @_ZL10gMainTable, i64 92), align 4
  %11 = icmp ult i32 %9, %10
  %or.cond = select i1 %.not18, i1 %11, i1 false
  br i1 %or.cond, label %12, label %.thread

12:                                               ; preds = %8
  %13 = load ptr, ptr getelementptr inbounds nuw (i8, ptr @_ZL10gMainTable, i64 40), align 8, !tbaa !39
  %14 = zext nneg i32 %9 to i64
  %15 = getelementptr inbounds nuw i16, ptr %13, i64 %14
  %16 = getelementptr inbounds nuw i8, ptr %15, i64 2
  %17 = load i16, ptr %16, align 2, !tbaa !22
  %.not19 = icmp eq i16 %17, 0
  %18 = load ptr, ptr getelementptr inbounds nuw (i8, ptr @_ZL10gMainTable, i64 56), align 8
  %19 = zext i16 %17 to i64
  %20 = getelementptr inbounds nuw i16, ptr %18, i64 %19
  br i1 %.not19, label %.thread, label %21

.thread:                                          ; preds = %8, %12
  br label %21

21:                                               ; preds = %3, %_ZL7isAliasPKcP10UErrorCode.exit, %_ZL7isAliasPKcP10UErrorCode.exit.thread, %.thread, %12
  %.3 = phi ptr [ %20, %12 ], [ null, %.thread ], [ null, %_ZL7isAliasPKcP10UErrorCode.exit.thread ], [ null, %_ZL7isAliasPKcP10UErrorCode.exit ], [ null, %3 ]
  ret ptr %.3
}